target datalayout = "e-m:e-p270:32:32-p271:32:32-p272:64:64-i64:64-i128:128-f80:128-n8:16:32:64-S128"
target triple = "x86_64-pc-linux-gnu"

%struct.archive_string = type { ptr, i64, i64 }
%struct.tree = type { ptr, ptr, ptr, ptr, i32, i32, i32, %struct.archive_string, ptr, i64, i32, i32, i32, i32, i32, %struct.stat, %struct.stat, i32, i32, %struct.restore_time, ptr, ptr, i32, i32, i8, i8, ptr, ptr, i32, i32, i32, i32, i32, i32, i64, i64, ptr, i64 }
%struct.stat = type { i64, i64, i64, i32, i32, i32, i32, i64, i64, i64, i64, %struct.timespec, %struct.timespec, %struct.timespec, [3 x i64] }
%struct.timespec = type { i64, i64 }
%struct.restore_time = type { ptr, i64, i64, i64, i64, i32, i32 }
%struct.filesystem = type { i64, i32, i32, i32, i64, i64, i64, i64, ptr, ptr, i64 }

; Function Attrs: nounwind uwtable
define internal i32 @get_xfer_size(ptr noundef %0, i32 noundef %1, ptr noundef %2) #0 {
  %4 = alloca i32, align 4
  %5 = alloca ptr, align 8
  %6 = alloca i32, align 4
  %7 = alloca ptr, align 8
  store ptr %0, ptr %5, align 8
  store i32 %1, ptr %6, align 4
  store ptr %2, ptr %7, align 8
  %8 = load ptr, ptr %5, align 8
  %9 = getelementptr inbounds %struct.tree, ptr %8, i32 0, i32 26
  %10 = load ptr, ptr %9, align 8
  %11 = getelementptr inbounds %struct.filesystem, ptr %10, i32 0, i32 7
  store i64 -1, ptr %11, align 8
  %12 = call ptr @__errno_location() #13
  store i32 0, ptr %12, align 4
  %13 = load i32, ptr %6, align 4
  %14 = icmp sge i32 %13, 0
  br i1 %14, label %15, label %40

15:                                               ; preds = %3
  %16 = load i32, ptr %6, align 4
  %17 = call i64 @fpathconf(i32 noundef %16, i32 noundef 14) #10
  %18 = load ptr, ptr %5, align 8
  %19 = getelementptr inbounds %struct.tree, ptr %18, i32 0, i32 26
  %20 = load ptr, ptr %19, align 8
  %21 = getelementptr inbounds %struct.filesystem, ptr %20, i32 0, i32 4
  store i64 %17, ptr %21, align 8
  %22 = load i32, ptr %6, align 4
  %23 = call i64 @fpathconf(i32 noundef %22, i32 noundef 15) #10
  %24 = load ptr, ptr %5, align 8
  %25 = getelementptr inbounds %struct.tree, ptr %24, i32 0, i32 26
  %26 = load ptr, ptr %25, align 8
  %27 = getelementptr inbounds %struct.filesystem, ptr %26, i32 0, i32 5
  store i64 %23, ptr %27, align 8
  %28 = load i32, ptr %6, align 4
  %29 = call i64 @fpathconf(i32 noundef %28, i32 noundef 16) #10
  %30 = load ptr, ptr %5, align 8
  %31 = getelementptr inbounds %struct.tree, ptr %30, i32 0, i32 26
  %32 = load ptr, ptr %31, align 8
  %33 = getelementptr inbounds %struct.filesystem, ptr %32, i32 0, i32 6
  store i64 %29, ptr %33, align 8
  %34 = load i32, ptr %6, align 4
  %35 = call i64 @fpathconf(i32 noundef %34, i32 noundef 17) #10
  %36 = load ptr, ptr %5, align 8
  %37 = getelementptr inbounds %struct.tree, ptr %36, i32 0, i32 26
  %38 = load ptr, ptr %37, align 8
  %39 = getelementptr inbounds %struct.filesystem, ptr %38, i32 0, i32 7
  store i64 %35, ptr %39, align 8
  br label %69

40:                                               ; preds = %3
  %41 = load ptr, ptr %7, align 8
  %42 = icmp ne ptr %41, null
  br i1 %42, label %43, label %68

43:                                               ; preds = %40
  %44 = load ptr, ptr %7, align 8
  %45 = call i64 @pathconf(ptr noundef %44, i32 noundef 14) #10
  %46 = load ptr, ptr %5, align 8
  %47 = getelementptr inbounds %struct.tree, ptr %46, i32 0, i32 26
  %48 = load ptr, ptr %47, align 8
  %49 = getelementptr inbounds %struct.filesystem, ptr %48, i32 0, i32 4
  store i64 %45, ptr %49, align 8
  %50 = load ptr, ptr %7, align 8
  %51 = call i64 @pathconf(ptr noundef %50, i32 noundef 15) #10
  %52 = load ptr, ptr %5, align 8
  %53 = getelementptr inbounds %struct.tree, ptr %52, i32 0, i32 26
  %54 = load ptr, ptr %53, align 8
  %55 = getelementptr inbounds %struct.filesystem, ptr %54, i32 0, i32 5
  store i64 %51, ptr %55, align 8
  %56 = load ptr, ptr %7, align 8
  %57 = call i64 @pathconf(ptr noundef %56, i32 noundef 16) #10
  %58 = load ptr, ptr %5, align 8
  %59 = getelementptr inbounds %struct.tree, ptr %58, i32 0, i32 26
  %60 = load ptr, ptr %59, align 8
  %61 = getelementptr inbounds %struct.filesystem, ptr %60, i32 0, i32 6
  store i64 %57, ptr %61, align 8
  %62 = load ptr, ptr %7, align 8
  %63 = call i64 @pathconf(ptr noundef %62, i32 noundef 17) #10
  %64 = load ptr, ptr %5, align 8
  %65 = getelementptr inbounds %struct.tree, ptr %64, i32 0, i32 26
  %66 = load ptr, ptr %65, align 8
  %67 = getelementptr inbounds %struct.filesystem, ptr %66, i32 0, i32 7
  store i64 %63, ptr %67, align 8
  br label %68

68:                                               ; preds = %43, %40
  br label %69

69:                                               ; preds = %68, %15
  %70 = load ptr, ptr %5, align 8
  %71 = getelementptr inbounds %struct.tree, ptr %70, i32 0, i32 26
  %72 = load ptr, ptr %71, align 8
  %73 = getelementptr inbounds %struct.filesystem, ptr %72, i32 0, i32 7
  %74 = load i64, ptr %73, align 8
  %75 = icmp eq i64 %74, -1
  br i1 %75, label %76, label %81

76:                                               ; preds = %69
  %77 = call ptr @__errno_location() #13
  %78 = load i32, ptr %77, align 4
  %79 = icmp eq i32 %78, 22
  %80 = select i1 %79, i32 1, i32 -1
  store i32 %80, ptr %4, align 4
  br label %82

81:                                               ; preds = %69
  store i32 0, ptr %4, align 4
  br label %82

82:                                               ; preds = %81, %76
  %83 = load i32, ptr %4, align 4
  ret i32 %83
}