; Function Attrs: nounwind uwtable
define internal fastcc range(i32 -1, 2) i32 @get_xfer_size(ptr noundef readonly captures(none) %0, i32 noundef %1) unnamed_addr #0 {
  %3 = getelementptr inbounds nuw i8, ptr %0, i64 488
  %4 = load ptr, ptr %3, align 8
  %5 = getelementptr inbounds nuw i8, ptr %4, i64 48
  store i64 -1, ptr %5, align 8
  %6 = tail call ptr @__errno_location() #21
  store i32 0, ptr %6, align 4
  %7 = icmp sgt i32 %1, -1
  br i1 %7, label %8, label %21

8:                                                ; preds = %2
  %9 = tail call i64 @fpathconf(i32 noundef %1, i32 noundef 14) #17
  %10 = load ptr, ptr %3, align 8
  %11 = getelementptr inbounds nuw i8, ptr %10, i64 24
  store i64 %9, ptr %11, align 8
  %12 = tail call i64 @fpathconf(i32 noundef %1, i32 noundef 15) #17
  %13 = load ptr, ptr %3, align 8
  %14 = getelementptr inbounds nuw i8, ptr %13, i64 32
  store i64 %12, ptr %14, align 8
  %15 = tail call i64 @fpathconf(i32 noundef %1, i32 noundef 16) #17
  %16 = load ptr, ptr %3, align 8
  %17 = getelementptr inbounds nuw i8, ptr %16, i64 40
  store i64 %15, ptr %17, align 8
  %18 = tail call i64 @fpathconf(i32 noundef %1, i32 noundef 17) #17
  %19 = load ptr, ptr %3, align 8
  %20 = getelementptr inbounds nuw i8, ptr %19, i64 48
  store i64 %18, ptr %20, align 8
  br label %21

21:                                               ; preds = %2, %8
  %22 = load ptr, ptr %3, align 8
  %23 = getelementptr inbounds nuw i8, ptr %22, i64 48
  %24 = load i64, ptr %23, align 8
  %25 = icmp eq i64 %24, -1
  br i1 %25, label %26, label %30

26:                                               ; preds = %21
  %27 = load i32, ptr %6, align 4
  %28 = icmp eq i32 %27, 22
  %29 = select i1 %28, i32 1, i32 -1
  br label %30

30:                                               ; preds = %21, %26
  %.0 = phi i32 [ %29, %26 ], [ 0, %21 ]
  ret i32 %.0
}